; Function Attrs: mustprogress nofree nounwind willreturn memory(read, inaccessiblemem: none) uwtable
define noundef zeroext i1 @_ZNK4pkpy3StreqESt17basic_string_viewIcSt11char_traitsIcEE(ptr nocapture noundef nonnull readonly align 8 dereferenceable(32) %0, i64 %1, ptr nocapture readonly %2) local_unnamed_addr #9 align 2 {
  %4 = load i32, ptr %0, align 8
  %5 = trunc i64 %1 to i32
  %.not = icmp eq i32 %4, %5
  br i1 %.not, label %6, label %11

6:                                                ; preds = %3
  %7 = getelementptr inbounds i8, ptr %0, i64 8
  %8 = load ptr, ptr %7, align 8
  %9 = sext i32 %4 to i64
  %bcmp = tail call i32 @bcmp(ptr %8, ptr %2, i64 %9)
  %10 = icmp eq i32 %bcmp, 0
  br label %11

11:                                               ; preds = %3, %6
  %.0 = phi i1 [ %10, %6 ], [ false, %3 ]
  ret i1 %.0
}